; Function Attrs: mustprogress uwtable
define noundef signext i8 @_ZN6icu_7712RegexMatcher4findEv(ptr noundef nonnull align 8 dereferenceable(336) %0) unnamed_addr #1 align 2 {
  %2 = alloca i32, align 4
  %3 = getelementptr inbounds nuw i8, ptr %0, i64 316
  %4 = load i32, ptr %3, align 4, !tbaa !39
  %5 = icmp slt i32 %4, 1
  br i1 %5, label %6, label %8

6:                                                ; preds = %1
  call void @llvm.lifetime.start.p0(i64 4, ptr nonnull %2) #21
  store i32 0, ptr %2, align 4, !tbaa !13
  %7 = call noundef signext i8 @_ZN6icu_7712RegexMatcher4findER10UErrorCode(ptr noundef nonnull align 8 dereferenceable(336) %0, ptr noundef nonnull align 4 dereferenceable(4) %2)
  call void @llvm.lifetime.end.p0(i64 4, ptr nonnull %2) #21
  br label %8

8:                                                ; preds = %1, %6
  %.0 = phi i8 [ %7, %6 ], [ 0, %1 ]
  ret i8 %.0
}